target datalayout = "e-m:e-p270:32:32-p271:32:32-p272:64:64-i64:64-i128:128-f80:128-n8:16:32:64-S128"
target triple = "x86_64-unknown-linux-gnu"

%"class.google::protobuf::MessageLite" = type { ptr, %"class.google::protobuf::internal::InternalMetadata" }
%"class.google::protobuf::internal::InternalMetadata" = type { i64 }
%"struct.google::protobuf::internal::InternalMetadata::Container" = type { %"struct.google::protobuf::internal::InternalMetadata::ContainerBase", %"class.google::protobuf::UnknownFieldSet" }
%"struct.google::protobuf::internal::InternalMetadata::ContainerBase" = type { ptr }
%"class.google::protobuf::UnknownFieldSet" = type { %"class.std::vector" }
%"class.std::vector" = type { %"struct.std::_Vector_base" }
%"struct.std::_Vector_base" = type { %"struct.std::_Vector_base<google::protobuf::UnknownField, std::allocator<google::protobuf::UnknownField>>::_Vector_impl" }
%"struct.std::_Vector_base<google::protobuf::UnknownField, std::allocator<google::protobuf::UnknownField>>::_Vector_impl" = type { %"struct.std::_Vector_base<google::protobuf::UnknownField, std::allocator<google::protobuf::UnknownField>>::_Vector_impl_data" }
%"struct.std::_Vector_base<google::protobuf::UnknownField, std::allocator<google::protobuf::UnknownField>>::_Vector_impl_data" = type { ptr, ptr, ptr }

; Function Attrs: mustprogress nounwind uwtable
define linkonce_odr hidden noundef ptr @_ZNK6google8protobuf8internal16InternalMetadata8PtrValueINS2_9ContainerINS0_15UnknownFieldSetEEEEEPT_v(ptr noundef nonnull align 8 dereferenceable(8) %this) #5 comdat align 2 {
entry:
  %this.addr = alloca ptr, align 8
  store ptr %this, ptr %this.addr, align 8
  %this1 = load ptr, ptr %this.addr, align 8
  %ptr_ = getelementptr inbounds %"class.google::protobuf::internal::InternalMetadata", ptr %this1, i32 0, i32 0
  %0 = load i64, ptr %ptr_, align 8
  %and = and i64 %0, -2
  %1 = inttoptr i64 %and to ptr
  ret ptr %1
}

; Function Attrs: mustprogress uwtable
define void @_ZN6google8protobuf8internal14ZeroFieldsBase8CopyImplERNS0_7MessageERKS3_(ptr noundef nonnull align 8 dereferenceable(16) %to_param, ptr noundef nonnull align 8 dereferenceable(16) %from_param) #4 align 2 {
entry:
  %this.addr.i15 = alloca ptr, align 8
  %this.addr.i11 = alloca ptr, align 8
  %this.addr.i9 = alloca ptr, align 8
  %this.addr.i.i.i = alloca ptr, align 8
  %retval.i.i = alloca ptr, align 8
  %this.addr.i3.i = alloca ptr, align 8
  %default_instance.addr.i.i = alloca ptr, align 8
  %this.addr.i.i = alloca ptr, align 8
  %this.addr.i6 = alloca ptr, align 8
  %other.addr.i = alloca ptr, align 8
  %this.addr.i3 = alloca ptr, align 8
  %this.addr.i = alloca ptr, align 8
  %to_param.addr = alloca ptr, align 8
  %from_param.addr = alloca ptr, align 8
  %to = alloca ptr, align 8
  %from = alloca ptr, align 8
  store ptr %to_param, ptr %to_param.addr, align 8
  store ptr %from_param, ptr %from_param.addr, align 8
  %0 = load ptr, ptr %to_param.addr, align 8
  store ptr %0, ptr %to, align 8
  %1 = load ptr, ptr %from_param.addr, align 8
  store ptr %1, ptr %from, align 8
  %2 = load ptr, ptr %from, align 8
  %3 = load ptr, ptr %to, align 8
  %cmp = icmp eq ptr %2, %3
  br i1 %cmp, label %if.then, label %if.end

if.then:                                          ; preds = %entry
  br label %return

if.end:                                           ; preds = %entry
  %4 = load ptr, ptr %to, align 8
  %_internal_metadata_ = getelementptr inbounds %"class.google::protobuf::MessageLite", ptr %4, i32 0, i32 1
  store ptr %_internal_metadata_, ptr %this.addr.i, align 8
  %this1.i = load ptr, ptr %this.addr.i, align 8
  store ptr %this1.i, ptr %this.addr.i3, align 8
  %this1.i4 = load ptr, ptr %this.addr.i3, align 8
  store ptr %this1.i4, ptr %this.addr.i15, align 8
  %this1.i16 = load ptr, ptr %this.addr.i15, align 8
  %5 = load i64, ptr %this1.i16, align 8
  %and.i17 = and i64 %5, 1
  %tobool.i18 = icmp ne i64 %and.i17, 0
  br i1 %tobool.i18, label %if.then.i, label %_ZN6google8protobuf8internal16InternalMetadata5ClearINS0_15UnknownFieldSetEEEvv.exit

if.then.i:                                        ; preds = %if.end
  call void @_ZN6google8protobuf8internal16InternalMetadata7DoClearINS0_15UnknownFieldSetEEEvv(ptr noundef nonnull align 8 dereferenceable(8) %this1.i)
  br label %_ZN6google8protobuf8internal16InternalMetadata5ClearINS0_15UnknownFieldSetEEEvv.exit

_ZN6google8protobuf8internal16InternalMetadata5ClearINS0_15UnknownFieldSetEEEvv.exit: ; preds = %if.then.i, %if.end
  %6 = load ptr, ptr %to, align 8
  %_internal_metadata_1 = getelementptr inbounds %"class.google::protobuf::MessageLite", ptr %6, i32 0, i32 1
  %7 = load ptr, ptr %from, align 8
  %_internal_metadata_2 = getelementptr inbounds %"class.google::protobuf::MessageLite", ptr %7, i32 0, i32 1
  store ptr %_internal_metadata_1, ptr %this.addr.i6, align 8
  store ptr %_internal_metadata_2, ptr %other.addr.i, align 8
  %this1.i7 = load ptr, ptr %this.addr.i6, align 8
  %8 = load ptr, ptr %other.addr.i, align 8
  store ptr %8, ptr %this.addr.i.i, align 8
  %this1.i.i = load ptr, ptr %this.addr.i.i, align 8
  store ptr %this1.i.i, ptr %this.addr.i11, align 8
  %this1.i12 = load ptr, ptr %this.addr.i11, align 8
  %9 = load i64, ptr %this1.i12, align 8
  %and.i13 = and i64 %9, 1
  %tobool.i14 = icmp ne i64 %and.i13, 0
  br i1 %tobool.i14, label %if.then.i8, label %_ZN6google8protobuf8internal16InternalMetadata9MergeFromINS0_15UnknownFieldSetEEEvRKS2_.exit

if.then.i8:                                       ; preds = %_ZN6google8protobuf8internal16InternalMetadata5ClearINS0_15UnknownFieldSetEEEvv.exit
  %10 = load ptr, ptr %other.addr.i, align 8
  store ptr %10, ptr %this.addr.i3.i, align 8
  store ptr null, ptr %default_instance.addr.i.i, align 8
  %this1.i4.i = load ptr, ptr %this.addr.i3.i, align 8
  store ptr %this1.i4.i, ptr %this.addr.i.i.i, align 8
  %this1.i.i.i = load ptr, ptr %this.addr.i.i.i, align 8
  store ptr %this1.i.i.i, ptr %this.addr.i9, align 8
  %this1.i10 = load ptr, ptr %this.addr.i9, align 8
  %11 = load i64, ptr %this1.i10, align 8
  %and.i = and i64 %11, 1
  %tobool.i = icmp ne i64 %and.i, 0
  br i1 %tobool.i, label %if.then.i.i, label %if.else.i.i

if.then.i.i:                                      ; preds = %if.then.i8
  %call2.i.i = call noundef ptr @_ZNK6google8protobuf8internal16InternalMetadata8PtrValueINS2_9ContainerINS0_15UnknownFieldSetEEEEEPT_v(ptr noundef nonnull align 8 dereferenceable(8) %this1.i4.i)
  %unknown_fields.i.i = getelementptr inbounds %"struct.google::protobuf::internal::InternalMetadata::Container", ptr %call2.i.i, i32 0, i32 1
  store ptr %unknown_fields.i.i, ptr %retval.i.i, align 8
  br label %_ZNK6google8protobuf8internal16InternalMetadata14unknown_fieldsINS0_15UnknownFieldSetEEERKT_PFS7_vE.exit.i

if.else.i.i:                                      ; preds = %if.then.i8
  %12 = load ptr, ptr %default_instance.addr.i.i, align 8
  %call3.i.i = call noundef nonnull align 8 dereferenceable(24) ptr %12()
  store ptr %call3.i.i, ptr %retval.i.i, align 8
  br label %_ZNK6google8protobuf8internal16InternalMetadata14unknown_fieldsINS0_15UnknownFieldSetEEERKT_PFS7_vE.exit.i

_ZNK6google8protobuf8internal16InternalMetadata14unknown_fieldsINS0_15UnknownFieldSetEEERKT_PFS7_vE.exit.i: ; preds = %if.else.i.i, %if.then.i.i
  %13 = load ptr, ptr %retval.i.i, align 8
  call void @_ZN6google8protobuf8internal16InternalMetadata11DoMergeFromINS0_15UnknownFieldSetEEEvRKT_(ptr noundef nonnull align 8 dereferenceable(8) %this1.i7, ptr noundef nonnull align 8 dereferenceable(24) %13)
  br label %_ZN6google8protobuf8internal16InternalMetadata9MergeFromINS0_15UnknownFieldSetEEEvRKS2_.exit

_ZN6google8protobuf8internal16InternalMetadata9MergeFromINS0_15UnknownFieldSetEEEvRKS2_.exit: ; preds = %_ZNK6google8protobuf8internal16InternalMetadata14unknown_fieldsINS0_15UnknownFieldSetEEERKT_PFS7_vE.exit.i, %_ZN6google8protobuf8internal16InternalMetadata5ClearINS0_15UnknownFieldSetEEEvv.exit
  br label %return

return:                                           ; preds = %_ZN6google8protobuf8internal16InternalMetadata9MergeFromINS0_15UnknownFieldSetEEEvRKS2_.exit, %if.then
  ret void
}