; Function Attrs: mustprogress uwtable
define void @_ZN6google8protobuf8internal14ZeroFieldsBase8CopyImplERNS0_7MessageERKS3_(ptr noundef nonnull align 8 dereferenceable(16) %to_param, ptr noundef nonnull readonly align 8 dereferenceable(16) %from_param) local_unnamed_addr #3 align 2 {
entry:
  %cmp = icmp eq ptr %from_param, %to_param
  br i1 %cmp, label %return, label %if.end

if.end:                                           ; preds = %entry
  %_internal_metadata_ = getelementptr inbounds i8, ptr %to_param, i64 8
  %0 = load i64, ptr %_internal_metadata_, align 8
  %and.i17 = and i64 %0, 1
  %tobool.i18.not = icmp eq i64 %and.i17, 0
  br i1 %tobool.i18.not, label %_ZN6google8protobuf8internal16InternalMetadata5ClearINS0_15UnknownFieldSetEEEvv.exit, label %if.then.i

if.then.i:                                        ; preds = %if.end
  tail call void @_ZN6google8protobuf8internal16InternalMetadata7DoClearINS0_15UnknownFieldSetEEEvv(ptr noundef nonnull align 8 dereferenceable(8) %_internal_metadata_)
  br label %_ZN6google8protobuf8internal16InternalMetadata5ClearINS0_15UnknownFieldSetEEEvv.exit

_ZN6google8protobuf8internal16InternalMetadata5ClearINS0_15UnknownFieldSetEEEvv.exit: ; preds = %if.then.i, %if.end
  %_internal_metadata_2 = getelementptr inbounds i8, ptr %from_param, i64 8
  %1 = load i64, ptr %_internal_metadata_2, align 8
  %and.i13 = and i64 %1, 1
  %tobool.i14.not = icmp eq i64 %and.i13, 0
  br i1 %tobool.i14.not, label %return, label %if.then.i.i

if.then.i.i:                                      ; preds = %_ZN6google8protobuf8internal16InternalMetadata5ClearINS0_15UnknownFieldSetEEEvv.exit
  %and.i = and i64 %1, -2
  %2 = inttoptr i64 %and.i to ptr
  %unknown_fields.i.i = getelementptr inbounds i8, ptr %2, i64 8
  tail call void @_ZN6google8protobuf8internal16InternalMetadata11DoMergeFromINS0_15UnknownFieldSetEEEvRKT_(ptr noundef nonnull align 8 dereferenceable(8) %_internal_metadata_, ptr noundef nonnull align 8 dereferenceable(24) %unknown_fields.i.i)
  br label %return

return:                                           ; preds = %_ZN6google8protobuf8internal16InternalMetadata5ClearINS0_15UnknownFieldSetEEEvv.exit, %if.then.i.i, %entry
  ret void
}